; ModuleID = '10/1944.c'
source_filename = "10/1944.c"
target datalayout = "e-m:e-p270:32:32-p271:32:32-p272:64:64-i64:64-f80:128-n8:16:32:64-S128"
target triple = "x86_64-pc-linux-gnu"

@.str = private unnamed_addr constant [3 x i8] c"%d\00", align 1

; Function Attrs: noinline nounwind uwtable
define dso_local void @main() #0 {
  %1 = alloca i32, align 4
  %2 = alloca [28 x i32], align 16
  %3 = alloca [28 x [28 x i32]], align 16
  %4 = alloca i32, align 4
  %5 = alloca i32, align 4
  %6 = alloca i32, align 4
  %7 = alloca i32, align 4
  %8 = alloca i32, align 4
  %9 = bitcast [28 x [28 x i32]]* %3 to i8*
  call void @llvm.memset.p0i8.i64(i8* align 16 %9, i8 0, i64 3136, i1 false)
  store i32 0, i32* %8, align 4
  %10 = call i32 (i8*, ...) @__isoc99_scanf(i8* getelementptr inbounds ([3 x i8], [3 x i8]* @.str, i64 0, i64 0), i32* %1)
  store i32 1, i32* %4, align 4
  br label %11

11:                                               ; preds = %20, %0
  %12 = load i32, i32* %4, align 4
  %13 = load i32, i32* %1, align 4
  %14 = icmp sle i32 %12, %13
  br i1 %14, label %15, label %23

15:                                               ; preds = %11
  %16 = load i32, i32* %4, align 4
  %17 = sext i32 %16 to i64
  %18 = getelementptr inbounds [28 x i32], [28 x i32]* %2, i64 0, i64 %17
  %19 = call i32 (i8*, ...) @__isoc99_scanf(i8* getelementptr inbounds ([3 x i8], [3 x i8]* @.str, i64 0, i64 0), i32* %18)
  br label %20

20:                                               ; preds = %15
  %21 = load i32, i32* %4, align 4
  %22 = add nsw i32 %21, 1
  store i32 %22, i32* %4, align 4
  br label %11

23:                                               ; preds = %11
  store i32 1, i32* %6, align 4
  br label %24

24:                                               ; preds = %108, %23
  %25 = load i32, i32* %6, align 4
  %26 = load i32, i32* %1, align 4
  %27 = icmp sle i32 %25, %26
  br i1 %27, label %28, label %111

28:                                               ; preds = %24
  %29 = load i32, i32* %6, align 4
  %30 = sext i32 %29 to i64
  %31 = getelementptr inbounds [28 x [28 x i32]], [28 x [28 x i32]]* %3, i64 0, i64 %30
  %32 = load i32, i32* %6, align 4
  %33 = sext i32 %32 to i64
  %34 = getelementptr inbounds [28 x i32], [28 x i32]* %31, i64 0, i64 %33
  store i32 1, i32* %34, align 4
  %35 = load i32, i32* %6, align 4
  store i32 %35, i32* %4, align 4
  br label %36

36:                                               ; preds = %104, %28
  %37 = load i32, i32* %4, align 4
  %38 = load i32, i32* %1, align 4
  %39 = icmp sle i32 %37, %38
  br i1 %39, label %40, label %107

40:                                               ; preds = %36
  store i32 0, i32* %8, align 4
  %41 = load i32, i32* %4, align 4
  %42 = sub nsw i32 %41, 1
  store i32 %42, i32* %5, align 4
  br label %43

43:                                               ; preds = %90, %40
  %44 = load i32, i32* %5, align 4
  %45 = load i32, i32* %6, align 4
  %46 = sub nsw i32 %45, 1
  %47 = icmp sgt i32 %44, %46
  br i1 %47, label %48, label %93

48:                                               ; preds = %43
  %49 = load i32, i32* %5, align 4
  %50 = sext i32 %49 to i64
  %51 = getelementptr inbounds [28 x i32], [28 x i32]* %2, i64 0, i64 %50
  %52 = load i32, i32* %51, align 4
  %53 = load i32, i32* %4, align 4
  %54 = sext i32 %53 to i64
  %55 = getelementptr inbounds [28 x i32], [28 x i32]* %2, i64 0, i64 %54
  %56 = load i32, i32* %55, align 4
  %57 = icmp sge i32 %52, %56
  br i1 %57, label %58, label %89

58:                                               ; preds = %48
  %59 = load i32, i32* %6, align 4
  %60 = sext i32 %59 to i64
  %61 = getelementptr inbounds [28 x [28 x i32]], [28 x [28 x i32]]* %3, i64 0, i64 %60
  %62 = load i32, i32* %5, align 4
  %63 = sext i32 %62 to i64
  %64 = getelementptr inbounds [28 x i32], [28 x i32]* %61, i64 0, i64 %63
  %65 = load i32, i32* %64, align 4
  %66 = load i32, i32* %6, align 4
  %67 = sext i32 %66 to i64
  %68 = getelementptr inbounds [28 x [28 x i32]], [28 x [28 x i32]]* %3, i64 0, i64 %67
  %69 = load i32, i32* %4, align 4
  %70 = sext i32 %69 to i64
  %71 = getelementptr inbounds [28 x i32], [28 x i32]* %68, i64 0, i64 %70
  %72 = load i32, i32* %71, align 4
  %73 = icmp sge i32 %65, %72
  br i1 %73, label %74, label %89

74:                                               ; preds = %58
  %75 = load i32, i32* %6, align 4
  %76 = sext i32 %75 to i64
  %77 = getelementptr inbounds [28 x [28 x i32]], [28 x [28 x i32]]* %3, i64 0, i64 %76
  %78 = load i32, i32* %5, align 4
  %79 = sext i32 %78 to i64
  %80 = getelementptr inbounds [28 x i32], [28 x i32]* %77, i64 0, i64 %79
  %81 = load i32, i32* %80, align 4
  %82 = add nsw i32 %81, 1
  %83 = load i32, i32* %6, align 4
  %84 = sext i32 %83 to i64
  %85 = getelementptr inbounds [28 x [28 x i32]], [28 x [28 x i32]]* %3, i64 0, i64 %84
  %86 = load i32, i32* %4, align 4
  %87 = sext i32 %86 to i64
  %88 = getelementptr inbounds [28 x i32], [28 x i32]* %85, i64 0, i64 %87
  store i32 %82, i32* %88, align 4
  store i32 1, i32* %8, align 4
  br label %89

89:                                               ; preds = %74, %58, %48
  br label %90

90:                                               ; preds = %89
  %91 = load i32, i32* %5, align 4
  %92 = add nsw i32 %91, -1
  store i32 %92, i32* %5, align 4
  br label %43

93:                                               ; preds = %43
  %94 = load i32, i32* %8, align 4
  %95 = icmp eq i32 %94, 0
  br i1 %95, label %96, label %103

96:                                               ; preds = %93
  %97 = load i32, i32* %6, align 4
  %98 = sext i32 %97 to i64
  %99 = getelementptr inbounds [28 x [28 x i32]], [28 x [28 x i32]]* %3, i64 0, i64 %98
  %100 = load i32, i32* %4, align 4
  %101 = sext i32 %100 to i64
  %102 = getelementptr inbounds [28 x i32], [28 x i32]* %99, i64 0, i64 %101
  store i32 1, i32* %102, align 4
  br label %103

103:                                              ; preds = %96, %93
  br label %104

104:                                              ; preds = %103
  %105 = load i32, i32* %4, align 4
  %106 = add nsw i32 %105, 1
  store i32 %106, i32* %4, align 4
  br label %36

107:                                              ; preds = %36
  br label %108

108:                                              ; preds = %107
  %109 = load i32, i32* %6, align 4
  %110 = add nsw i32 %109, 1
  store i32 %110, i32* %6, align 4
  br label %24

111:                                              ; preds = %24
  %112 = getelementptr inbounds [28 x [28 x i32]], [28 x [28 x i32]]* %3, i64 0, i64 1
  %113 = getelementptr inbounds [28 x i32], [28 x i32]* %112, i64 0, i64 1
  %114 = load i32, i32* %113, align 4
  store i32 %114, i32* %7, align 4
  store i32 1, i32* %4, align 4
  br label %115

115:                                              ; preds = %147, %111
  %116 = load i32, i32* %4, align 4
  %117 = load i32, i32* %1, align 4
  %118 = icmp sle i32 %116, %117
  br i1 %118, label %119, label %150

119:                                              ; preds = %115
  store i32 1, i32* %5, align 4
  br label %120

120:                                              ; preds = %143, %119
  %121 = load i32, i32* %5, align 4
  %122 = load i32, i32* %1, align 4
  %123 = icmp sle i32 %121, %122
  br i1 %123, label %124, label %146

124:                                              ; preds = %120
  %125 = load i32, i32* %4, align 4
  %126 = sext i32 %125 to i64
  %127 = getelementptr inbounds [28 x [28 x i32]], [28 x [28 x i32]]* %3, i64 0, i64 %126
  %128 = load i32, i32* %5, align 4
  %129 = sext i32 %128 to i64
  %130 = getelementptr inbounds [28 x i32], [28 x i32]* %127, i64 0, i64 %129
  %131 = load i32, i32* %130, align 4
  %132 = load i32, i32* %7, align 4
  %133 = icmp sgt i32 %131, %132
  br i1 %133, label %134, label %142

134:                                              ; preds = %124
  %135 = load i32, i32* %4, align 4
  %136 = sext i32 %135 to i64
  %137 = getelementptr inbounds [28 x [28 x i32]], [28 x [28 x i32]]* %3, i64 0, i64 %136
  %138 = load i32, i32* %5, align 4
  %139 = sext i32 %138 to i64
  %140 = getelementptr inbounds [28 x i32], [28 x i32]* %137, i64 0, i64 %139
  %141 = load i32, i32* %140, align 4
  store i32 %141, i32* %7, align 4
  br label %142

142:                                              ; preds = %134, %124
  br label %143

143:                                              ; preds = %142
  %144 = load i32, i32* %5, align 4
  %145 = add nsw i32 %144, 1
  store i32 %145, i32* %5, align 4
  br label %120

146:                                              ; preds = %120
  br label %147

147:                                              ; preds = %146
  %148 = load i32, i32* %4, align 4
  %149 = add nsw i32 %148, 1
  store i32 %149, i32* %4, align 4
  br label %115

150:                                              ; preds = %115
  %151 = load i32, i32* %7, align 4
  %152 = call i32 (i8*, ...) @printf(i8* getelementptr inbounds ([3 x i8], [3 x i8]* @.str, i64 0, i64 0), i32 %151)
  ret void
}

; Function Attrs: argmemonly nounwind willreturn
declare void @llvm.memset.p0i8.i64(i8* nocapture writeonly, i8, i64, i1 immarg) #1

declare dso_local i32 @__isoc99_scanf(i8*, ...) #2

declare dso_local i32 @printf(i8*, ...) #2


!llvm.module.flags = !{!0}
!llvm.ident = !{!1}

!0 = !{i32 1, !"wchar_size", i32 4}
!1 = !{!"clang version 10.0.0-4ubuntu1 "}
